; Function Attrs: mustprogress nounwind uwtable
define dso_local { ptr, i64 } @_ZN4llvm4yaml12ScalarTraitsIdvE5inputENS_9StringRefEPvRd(ptr %0, i64 %1, ptr noundef readnone captures(none) %2, ptr noundef nonnull writeonly align 8 captures(none) dereferenceable(8) %3) local_unnamed_addr #6 align 2 {
  %5 = alloca %"class.llvm::SmallString.112", align 8
  %6 = alloca ptr, align 8
  %7 = alloca %"class.llvm::Twine", align 8
  %8 = getelementptr inbounds nuw i8, ptr %7, i64 32
  store i8 5, ptr %8, align 8
  %9 = getelementptr inbounds nuw i8, ptr %7, i64 33
  store i8 1, ptr %9, align 1
  store ptr %0, ptr %7, align 8
  %10 = getelementptr inbounds nuw i8, ptr %7, i64 8
  store i64 %1, ptr %10, align 8
  call void @llvm.lifetime.start.p0(i64 56, ptr nonnull %5)
  call void @llvm.lifetime.start.p0(i64 8, ptr nonnull %6)
  %11 = getelementptr inbounds nuw i8, ptr %5, i64 24
  call void @_ZN4llvm15SmallVectorBaseImEC2EPvm(ptr noundef nonnull align 8 dereferenceable(56) %5, ptr noundef nonnull %11, i64 noundef 32) #32
  %12 = call { ptr, i64 } @_ZNK4llvm5Twine25toNullTerminatedStringRefERNS_15SmallVectorImplIcEE(ptr noundef nonnull align 8 dereferenceable(34) %7, ptr noundef nonnull align 8 dereferenceable(24) %5) #32
  %13 = extractvalue { ptr, i64 } %12, 0
  %14 = call noundef double @strtod(ptr noundef %13, ptr noundef nonnull %6) #32
  %15 = load ptr, ptr %6, align 8
  %16 = load i8, ptr %15, align 1
  %.not.i.i = icmp eq i8 %16, 0
  br i1 %.not.i.i, label %17, label %18

17:                                               ; preds = %4
  store double %14, ptr %3, align 8
  br label %18

18:                                               ; preds = %17, %4
  %19 = call noundef i64 @_ZNK4llvm15SmallVectorBaseImE4sizeEv(ptr noundef nonnull align 8 dereferenceable(56) %5) #32
  %20 = load ptr, ptr %5, align 8
  %21 = icmp eq ptr %20, %11
  br i1 %21, label %_ZN4llvm8to_floatERKNS_5TwineERd.exit, label %22

22:                                               ; preds = %18
  call void @free(ptr noundef %20) #32
  br label %_ZN4llvm8to_floatERKNS_5TwineERd.exit

_ZN4llvm8to_floatERKNS_5TwineERd.exit:            ; preds = %18, %22
  call void @llvm.lifetime.end.p0(i64 56, ptr nonnull %5)
  call void @llvm.lifetime.end.p0(i64 8, ptr nonnull %6)
  %spec.select = select i1 %.not.i.i, i64 0, i64 29
  %spec.select4 = select i1 %.not.i.i, ptr null, ptr @.str.42
  %.fca.0.insert = insertvalue { ptr, i64 } poison, ptr %spec.select4, 0
  %.fca.1.insert = insertvalue { ptr, i64 } %.fca.0.insert, i64 %spec.select, 1
  ret { ptr, i64 } %.fca.1.insert
}